target datalayout = "e-m:e-p270:32:32-p271:32:32-p272:64:64-i64:64-i128:128-f80:128-n8:16:32:64-S128"
target triple = "x86_64-pc-linux-gnu"

%struct.pointf_s = type { double, double }

@.str.86 = private unnamed_addr constant [21 x i8] c"move to (%.0f, %.0f)\00", align 1
@.str.87 = private unnamed_addr constant [23 x i8] c"; line to (%.0f, %.0f)\00", align 1
@.str.88 = private unnamed_addr constant [2 x i8] c"\0A\00", align 1

; Function Attrs: nounwind uwtable
define internal void @picptarray(ptr noundef %0, ptr noundef %1, i64 noundef %2, i32 noundef %3) #0 {
  %5 = alloca ptr, align 8
  %6 = alloca ptr, align 8
  %7 = alloca i64, align 8
  %8 = alloca i32, align 4
  %9 = alloca i64, align 8
  store ptr %0, ptr %5, align 8, !tbaa !3
  store ptr %1, ptr %6, align 8, !tbaa !61
  store i64 %2, ptr %7, align 8, !tbaa !63
  store i32 %3, ptr %8, align 4, !tbaa !39
  call void @llvm.lifetime.start.p0(i64 8, ptr %9) #8
  store i64 0, ptr %9, align 8, !tbaa !63
  br label %10

10:                                               ; preds = %43, %4
  %11 = load i64, ptr %9, align 8, !tbaa !63
  %12 = load i64, ptr %7, align 8, !tbaa !63
  %13 = icmp ult i64 %11, %12
  br i1 %13, label %15, label %14

14:                                               ; preds = %10
  call void @llvm.lifetime.end.p0(i64 8, ptr %9) #8
  br label %46

15:                                               ; preds = %10
  %16 = load i64, ptr %9, align 8, !tbaa !63
  %17 = icmp eq i64 %16, 0
  br i1 %17, label %18, label %30

18:                                               ; preds = %15
  %19 = load ptr, ptr %5, align 8, !tbaa !3
  %20 = load ptr, ptr %6, align 8, !tbaa !61
  %21 = load i64, ptr %9, align 8, !tbaa !63
  %22 = getelementptr inbounds nuw %struct.pointf_s, ptr %20, i64 %21
  %23 = getelementptr inbounds nuw %struct.pointf_s, ptr %22, i32 0, i32 0
  %24 = load double, ptr %23, align 8, !tbaa !53
  %25 = load ptr, ptr %6, align 8, !tbaa !61
  %26 = load i64, ptr %9, align 8, !tbaa !63
  %27 = getelementptr inbounds nuw %struct.pointf_s, ptr %25, i64 %26
  %28 = getelementptr inbounds nuw %struct.pointf_s, ptr %27, i32 0, i32 1
  %29 = load double, ptr %28, align 8, !tbaa !58
  call void (ptr, ptr, ...) @gvprintf(ptr noundef %19, ptr noundef @.str.86, double noundef %24, double noundef %29)
  br label %42

30:                                               ; preds = %15
  %31 = load ptr, ptr %5, align 8, !tbaa !3
  %32 = load ptr, ptr %6, align 8, !tbaa !61
  %33 = load i64, ptr %9, align 8, !tbaa !63
  %34 = getelementptr inbounds nuw %struct.pointf_s, ptr %32, i64 %33
  %35 = getelementptr inbounds nuw %struct.pointf_s, ptr %34, i32 0, i32 0
  %36 = load double, ptr %35, align 8, !tbaa !53
  %37 = load ptr, ptr %6, align 8, !tbaa !61
  %38 = load i64, ptr %9, align 8, !tbaa !63
  %39 = getelementptr inbounds nuw %struct.pointf_s, ptr %37, i64 %38
  %40 = getelementptr inbounds nuw %struct.pointf_s, ptr %39, i32 0, i32 1
  %41 = load double, ptr %40, align 8, !tbaa !58
  call void (ptr, ptr, ...) @gvprintf(ptr noundef %31, ptr noundef @.str.87, double noundef %36, double noundef %41)
  br label %42

42:                                               ; preds = %30, %18
  br label %43

43:                                               ; preds = %42
  %44 = load i64, ptr %9, align 8, !tbaa !63
  %45 = add i64 %44, 1
  store i64 %45, ptr %9, align 8, !tbaa !63
  br label %10, !llvm.loop !75

46:                                               ; preds = %14
  %47 = load i32, ptr %8, align 4, !tbaa !39
  %48 = icmp ne i32 %47, 0
  br i1 %48, label %49, label %59

49:                                               ; preds = %46
  %50 = load ptr, ptr %5, align 8, !tbaa !3
  %51 = load ptr, ptr %6, align 8, !tbaa !61
  %52 = getelementptr inbounds %struct.pointf_s, ptr %51, i64 0
  %53 = getelementptr inbounds nuw %struct.pointf_s, ptr %52, i32 0, i32 0
  %54 = load double, ptr %53, align 8, !tbaa !53
  %55 = load ptr, ptr %6, align 8, !tbaa !61
  %56 = getelementptr inbounds %struct.pointf_s, ptr %55, i64 0
  %57 = getelementptr inbounds nuw %struct.pointf_s, ptr %56, i32 0, i32 1
  %58 = load double, ptr %57, align 8, !tbaa !58
  call void (ptr, ptr, ...) @gvprintf(ptr noundef %50, ptr noundef @.str.87, double noundef %54, double noundef %58)
  br label %59

59:                                               ; preds = %49, %46
  %60 = load ptr, ptr %5, align 8, !tbaa !3
  %61 = call i32 @gvputs(ptr noundef %60, ptr noundef @.str.88)
  ret void
}

; Function Attrs: nounwind uwtable
define internal void @pic_polyline(ptr noundef %0, ptr noundef %1, i64 noundef %2) #0 {
  %4 = alloca ptr, align 8
  %5 = alloca ptr, align 8
  %6 = alloca i64, align 8
  store ptr %0, ptr %4, align 8, !tbaa !3
  store ptr %1, ptr %5, align 8, !tbaa !61
  store i64 %2, ptr %6, align 8, !tbaa !63
  %7 = load ptr, ptr %4, align 8, !tbaa !3
  %8 = load ptr, ptr %5, align 8, !tbaa !61
  %9 = load i64, ptr %6, align 8, !tbaa !63
  call void @picptarray(ptr noundef %7, ptr noundef %8, i64 noundef %9, i32 noundef 0)
  ret void
}