; Function Attrs: nounwind uwtable
define internal void @pic_polyline(ptr noundef %0, ptr noundef readonly captures(none) %1, i64 noundef %2) #0 {
  %.not19.i = icmp eq i64 %2, 0
  br i1 %.not19.i, label %picptarray.exit, label %.lr.ph.i

.lr.ph.i:                                         ; preds = %3
  %4 = getelementptr inbounds nuw i8, ptr %1, i64 8
  br label %5

5:                                                ; preds = %15, %.lr.ph.i
  %.018.i = phi i64 [ 0, %.lr.ph.i ], [ %16, %15 ]
  %6 = icmp eq i64 %.018.i, 0
  br i1 %6, label %7, label %10

7:                                                ; preds = %5
  %8 = load double, ptr %1, align 8, !tbaa !52
  %9 = load double, ptr %4, align 8, !tbaa !53
  tail call void (ptr, ptr, ...) @gvprintf(ptr noundef %0, ptr noundef nonnull @.str.86, double noundef %8, double noundef %9) #8
  br label %15

10:                                               ; preds = %5
  %11 = getelementptr inbounds nuw %struct.pointf_s, ptr %1, i64 %.018.i
  %12 = load double, ptr %11, align 8, !tbaa !52
  %13 = getelementptr inbounds nuw i8, ptr %11, i64 8
  %14 = load double, ptr %13, align 8, !tbaa !53
  tail call void (ptr, ptr, ...) @gvprintf(ptr noundef %0, ptr noundef nonnull @.str.87, double noundef %12, double noundef %14) #8
  br label %15

15:                                               ; preds = %10, %7
  %16 = add nuw i64 %.018.i, 1
  %exitcond.not.i = icmp eq i64 %16, %2
  br i1 %exitcond.not.i, label %picptarray.exit, label %5, !llvm.loop !54

picptarray.exit:                                  ; preds = %15, %3
  %17 = tail call i32 @gvputs(ptr noundef %0, ptr noundef nonnull @.str.88) #8
  ret void
}